target datalayout = "e-m:e-p270:32:32-p271:32:32-p272:64:64-i64:64-i128:128-f80:128-n8:16:32:64-S128"
target triple = "x86_64-pc-linux-gnu"

%struct._zend_array = type { %struct._zend_refcounted_h, %union.anon.4, i32, %union.anon.6, i32, i32, i32, i32, i64, ptr }
%struct._zend_refcounted_h = type { i32, %union.anon.3 }
%union.anon.3 = type { i32 }
%union.anon.4 = type { i32 }
%union.anon.6 = type { ptr }
%struct._zval_struct = type { %union._zend_value, %union.anon, %union.anon.2 }
%union._zend_value = type { i64 }
%union.anon = type { i32 }
%union.anon.2 = type { i32 }
%struct._php_basic_globals = type { ptr, %struct._zend_array, ptr, ptr, i8, ptr, [256 x i8], i64, %struct._zend_fcall_info, %struct._zend_fcall_info_cache, ptr, %struct._zval_struct, %struct._zval_struct, i64, i64, i64, i64, ptr, ptr, %struct._php_stream_statbuf, %struct._php_stream_statbuf, ptr, i32, %struct.anon.13, %struct.anon.14, %struct.url_adapt_state_ex_t, %struct._zend_array, %struct.url_adapt_state_ex_t, %struct._zend_array, ptr, i32, i64 }
%struct._zend_fcall_info = type { i64, %struct._zval_struct, ptr, ptr, ptr, i32, ptr }
%struct._zend_fcall_info_cache = type { ptr, ptr, ptr, ptr, ptr }
%struct._php_stream_statbuf = type { %struct.stat }
%struct.stat = type { i64, i64, i64, i32, i32, i32, i32, i64, i64, i64, i64, %struct.timespec, %struct.timespec, %struct.timespec, [3 x i64] }
%struct.timespec = type { i64, i64 }
%struct.anon.13 = type { ptr, i32 }
%struct.anon.14 = type { ptr, i32 }
%struct.url_adapt_state_ex_t = type { %struct.smart_str, %struct.smart_str, %struct.smart_str, %struct.smart_str, %struct.smart_str, %struct.smart_str, %struct.smart_str, i32, ptr, i32, i32, %struct.smart_str, i32, i32, ptr }
%struct.smart_str = type { ptr, i64 }
%struct.php_serialize_data = type { %struct._zend_array, i32 }

@basic_globals = external global %struct._php_basic_globals, align 8

; Function Attrs: nounwind uwtable
define ptr @php_var_serialize_init() #0 {
  %1 = alloca ptr, align 8
  %2 = load i32, ptr getelementptr inbounds (%struct._php_basic_globals, ptr @basic_globals, i32 0, i32 22), align 8
  %3 = icmp ne i32 %2, 0
  br i1 %3, label %7, label %4

4:                                                ; preds = %0
  %5 = load i32, ptr getelementptr inbounds (%struct._php_basic_globals, ptr @basic_globals, i32 0, i32 23, i32 1), align 8
  %6 = icmp ne i32 %5, 0
  br i1 %6, label %18, label %7

7:                                                ; preds = %4, %0
  %8 = call noalias ptr @_emalloc_64()
  store ptr %8, ptr %1, align 8
  %9 = load ptr, ptr %1, align 8
  %10 = getelementptr inbounds %struct.php_serialize_data, ptr %9, i32 0, i32 0
  call void @_zend_hash_init(ptr noundef %10, i32 noundef 16, ptr noundef @zval_ptr_dtor, i1 noundef zeroext false)
  %11 = load ptr, ptr %1, align 8
  %12 = getelementptr inbounds %struct.php_serialize_data, ptr %11, i32 0, i32 1
  store i32 0, ptr %12, align 8
  %13 = load i32, ptr getelementptr inbounds (%struct._php_basic_globals, ptr @basic_globals, i32 0, i32 22), align 8
  %14 = icmp ne i32 %13, 0
  br i1 %14, label %17, label %15

15:                                               ; preds = %7
  %16 = load ptr, ptr %1, align 8
  store ptr %16, ptr getelementptr inbounds (%struct._php_basic_globals, ptr @basic_globals, i32 0, i32 23), align 8
  store i32 1, ptr getelementptr inbounds (%struct._php_basic_globals, ptr @basic_globals, i32 0, i32 23, i32 1), align 8
  br label %17

17:                                               ; preds = %15, %7
  br label %22

18:                                               ; preds = %4
  %19 = load ptr, ptr getelementptr inbounds (%struct._php_basic_globals, ptr @basic_globals, i32 0, i32 23), align 8
  store ptr %19, ptr %1, align 8
  %20 = load i32, ptr getelementptr inbounds (%struct._php_basic_globals, ptr @basic_globals, i32 0, i32 23, i32 1), align 8
  %21 = add i32 %20, 1
  store i32 %21, ptr getelementptr inbounds (%struct._php_basic_globals, ptr @basic_globals, i32 0, i32 23, i32 1), align 8
  br label %22

22:                                               ; preds = %18, %17
  %23 = load ptr, ptr %1, align 8
  ret ptr %23
}