; Function Attrs: nounwind uwtable
define ptr @php_var_serialize_init() local_unnamed_addr #0 {
  %1 = load i32, ptr getelementptr inbounds (%struct._php_basic_globals, ptr @basic_globals, i64 0, i32 22), align 8
  %2 = icmp eq i32 %1, 0
  %3 = load i32, ptr getelementptr inbounds (%struct._php_basic_globals, ptr @basic_globals, i64 0, i32 23, i32 1), align 8
  %4 = icmp ne i32 %3, 0
  %or.cond = select i1 %2, i1 %4, i1 false
  br i1 %or.cond, label %10, label %5

5:                                                ; preds = %0
  %6 = tail call noalias ptr @_emalloc_64() #12
  tail call void @_zend_hash_init(ptr noundef %6, i32 noundef 16, ptr noundef nonnull @zval_ptr_dtor, i1 noundef zeroext false) #12
  %7 = getelementptr inbounds i8, ptr %6, i64 56
  store i32 0, ptr %7, align 8
  %8 = load i32, ptr getelementptr inbounds (%struct._php_basic_globals, ptr @basic_globals, i64 0, i32 22), align 8
  %.not = icmp eq i32 %8, 0
  br i1 %.not, label %9, label %13

9:                                                ; preds = %5
  store ptr %6, ptr getelementptr inbounds (%struct._php_basic_globals, ptr @basic_globals, i64 0, i32 23), align 8
  br label %.sink.split

10:                                               ; preds = %0
  %11 = load ptr, ptr getelementptr inbounds (%struct._php_basic_globals, ptr @basic_globals, i64 0, i32 23), align 8
  %12 = add i32 %3, 1
  br label %.sink.split

.sink.split:                                      ; preds = %10, %9
  %.sink = phi i32 [ 1, %9 ], [ %12, %10 ]
  %.0.ph = phi ptr [ %6, %9 ], [ %11, %10 ]
  store i32 %.sink, ptr getelementptr inbounds (%struct._php_basic_globals, ptr @basic_globals, i64 0, i32 23, i32 1), align 8
  br label %13

13:                                               ; preds = %.sink.split, %5
  %.0 = phi ptr [ %6, %5 ], [ %.0.ph, %.sink.split ]
  ret ptr %.0
}